target datalayout = "e-m:e-p270:32:32-p271:32:32-p272:64:64-i64:64-i128:128-f80:128-n8:16:32:64-S128"
target triple = "x86_64-unknown-linux-gnu"

%union.anon.0 = type { %struct.QTailQLink }
%struct.QTailQLink = type { ptr, ptr }
%struct.NotifierList = type { %struct.anon }
%struct.anon = type { ptr }
%struct.QemuInputHandlerState = type { ptr, ptr, i32, i32, ptr, %union.anon }
%union.anon = type { %struct.QTailQLink }

@qemu_input_handler_register.id = internal global i32 1, align 4
@handlers = internal global %union.anon.0 { %struct.QTailQLink { ptr null, ptr @handlers } }, align 8
@mouse_mode_notifiers = internal global %struct.NotifierList zeroinitializer, align 8

; Function Attrs: nounwind sspstrong uwtable
define dso_local ptr @qemu_input_handler_register(ptr noundef %dev, ptr noundef %handler) #0 {
entry:
  %dev.addr = alloca ptr, align 8
  %handler.addr = alloca ptr, align 8
  %s = alloca ptr, align 8
  store ptr %dev, ptr %dev.addr, align 8
  store ptr %handler, ptr %handler.addr, align 8
  %call = call noalias ptr @g_malloc0_n(i64 noundef 1, i64 noundef 48) #7
  store ptr %call, ptr %s, align 8
  %0 = load ptr, ptr %dev.addr, align 8
  %1 = load ptr, ptr %s, align 8
  %dev1 = getelementptr inbounds %struct.QemuInputHandlerState, ptr %1, i32 0, i32 0
  store ptr %0, ptr %dev1, align 8
  %2 = load ptr, ptr %handler.addr, align 8
  %3 = load ptr, ptr %s, align 8
  %handler2 = getelementptr inbounds %struct.QemuInputHandlerState, ptr %3, i32 0, i32 1
  store ptr %2, ptr %handler2, align 8
  %4 = load i32, ptr @qemu_input_handler_register.id, align 4
  %inc = add i32 %4, 1
  store i32 %inc, ptr @qemu_input_handler_register.id, align 4
  %5 = load ptr, ptr %s, align 8
  %id = getelementptr inbounds %struct.QemuInputHandlerState, ptr %5, i32 0, i32 2
  store i32 %4, ptr %id, align 8
  br label %do.body

do.body:                                          ; preds = %entry
  %6 = load ptr, ptr %s, align 8
  %node = getelementptr inbounds %struct.QemuInputHandlerState, ptr %6, i32 0, i32 5
  store ptr null, ptr %node, align 8
  %7 = getelementptr inbounds %struct.QTailQLink, ptr @handlers, i32 0, i32 1
  %8 = load ptr, ptr %7, align 8
  %9 = load ptr, ptr %s, align 8
  %node3 = getelementptr inbounds %struct.QemuInputHandlerState, ptr %9, i32 0, i32 5
  %tql_prev = getelementptr inbounds %struct.QTailQLink, ptr %node3, i32 0, i32 1
  store ptr %8, ptr %tql_prev, align 8
  %10 = load ptr, ptr %s, align 8
  %11 = getelementptr inbounds %struct.QTailQLink, ptr @handlers, i32 0, i32 1
  %12 = load ptr, ptr %11, align 8
  %tql_next = getelementptr inbounds %struct.QTailQLink, ptr %12, i32 0, i32 0
  store ptr %10, ptr %tql_next, align 8
  %13 = load ptr, ptr %s, align 8
  %node4 = getelementptr inbounds %struct.QemuInputHandlerState, ptr %13, i32 0, i32 5
  %14 = getelementptr inbounds %struct.QTailQLink, ptr @handlers, i32 0, i32 1
  store ptr %node4, ptr %14, align 8
  br label %do.end

do.end:                                           ; preds = %do.body
  call void @notifier_list_notify(ptr noundef @mouse_mode_notifiers, ptr noundef null)
  %15 = load ptr, ptr %s, align 8
  ret ptr %15
}