; Function Attrs: nounwind sspstrong uwtable
define dso_local noundef ptr @qemu_input_handler_register(ptr noundef %dev, ptr noundef %handler) local_unnamed_addr #0 {
entry:
  %call = tail call noalias dereferenceable_or_null(48) ptr @g_malloc0_n(i64 noundef 1, i64 noundef 48) #11
  store ptr %dev, ptr %call, align 8
  %handler2 = getelementptr inbounds nuw i8, ptr %call, i64 8
  store ptr %handler, ptr %handler2, align 8
  %0 = load i32, ptr @qemu_input_handler_register.id, align 4
  %inc = add i32 %0, 1
  store i32 %inc, ptr @qemu_input_handler_register.id, align 4
  %id = getelementptr inbounds nuw i8, ptr %call, i64 16
  store i32 %0, ptr %id, align 8
  %node = getelementptr inbounds nuw i8, ptr %call, i64 32
  store ptr null, ptr %node, align 8
  %1 = load ptr, ptr getelementptr inbounds nuw (i8, ptr @handlers, i64 8), align 8
  %tql_prev = getelementptr inbounds nuw i8, ptr %call, i64 40
  store ptr %1, ptr %tql_prev, align 8
  store ptr %call, ptr %1, align 8
  store ptr %node, ptr getelementptr inbounds nuw (i8, ptr @handlers, i64 8), align 8
  tail call void @notifier_list_notify(ptr noundef nonnull @mouse_mode_notifiers, ptr noundef null) #12
  ret ptr %call
}